target datalayout = "e-m:e-p270:32:32-p271:32:32-p272:64:64-i64:64-f80:128-n8:16:32:64-S128"
target triple = "x86_64-pc-linux-gnu"

@.str = private unnamed_addr constant [3 x i8] c"%d\00", align 1
@.str.1 = private unnamed_addr constant [6 x i8] c"%d %d\00", align 1
@.str.2 = private unnamed_addr constant [4 x i8] c"%d\0A\00", align 1

; Function Attrs: noinline nounwind uwtable
define dso_local i32 @main() #0 {
  %1 = alloca i32, align 4
  %2 = alloca i32, align 4
  %3 = alloca i32, align 4
  %4 = alloca i32, align 4
  %5 = alloca i32, align 4
  %6 = alloca [100 x [100 x i8]], align 16
  %7 = alloca i32, align 4
  %8 = alloca i32, align 4
  %9 = alloca i32, align 4
  store i32 0, i32* %1, align 4
  %10 = call i32 (i8*, ...) @__isoc99_scanf(i8* getelementptr inbounds ([3 x i8], [3 x i8]* @.str, i64 0, i64 0), i32* %4)
  store i32 0, i32* %5, align 4
  br label %11

11:                                               ; preds = %144, %0
  %12 = load i32, i32* %5, align 4
  %13 = load i32, i32* %4, align 4
  %14 = icmp slt i32 %12, %13
  br i1 %14, label %15, label %147

15:                                               ; preds = %11
  %16 = call i32 (i8*, ...) @__isoc99_scanf(i8* getelementptr inbounds ([6 x i8], [6 x i8]* @.str.1, i64 0, i64 0), i32* %2, i32* %3)
  store i32 0, i32* %7, align 4
  br label %17

17:                                               ; preds = %38, %15
  %18 = load i32, i32* %7, align 4
  %19 = load i32, i32* %2, align 4
  %20 = icmp slt i32 %18, %19
  br i1 %20, label %21, label %41

21:                                               ; preds = %17
  store i32 0, i32* %8, align 4
  br label %22

22:                                               ; preds = %34, %21
  %23 = load i32, i32* %8, align 4
  %24 = load i32, i32* %3, align 4
  %25 = icmp slt i32 %23, %24
  br i1 %25, label %26, label %37

26:                                               ; preds = %22
  %27 = load i32, i32* %7, align 4
  %28 = sext i32 %27 to i64
  %29 = getelementptr inbounds [100 x [100 x i8]], [100 x [100 x i8]]* %6, i64 0, i64 %28
  %30 = load i32, i32* %8, align 4
  %31 = sext i32 %30 to i64
  %32 = getelementptr inbounds [100 x i8], [100 x i8]* %29, i64 0, i64 %31
  %33 = call i32 (i8*, ...) @__isoc99_scanf(i8* getelementptr inbounds ([3 x i8], [3 x i8]* @.str, i64 0, i64 0), i8* %32)
  br label %34

34:                                               ; preds = %26
  %35 = load i32, i32* %8, align 4
  %36 = add nsw i32 %35, 1
  store i32 %36, i32* %8, align 4
  br label %22

37:                                               ; preds = %22
  br label %38

38:                                               ; preds = %37
  %39 = load i32, i32* %7, align 4
  %40 = add nsw i32 %39, 1
  store i32 %40, i32* %7, align 4
  br label %17

41:                                               ; preds = %17
  store i32 0, i32* %9, align 4
  %42 = load i32, i32* %2, align 4
  %43 = icmp eq i32 %42, 1
  br i1 %43, label %44, label %62

44:                                               ; preds = %41
  store i32 0, i32* %8, align 4
  br label %45

45:                                               ; preds = %58, %44
  %46 = load i32, i32* %8, align 4
  %47 = load i32, i32* %3, align 4
  %48 = icmp slt i32 %46, %47
  br i1 %48, label %49, label %61

49:                                               ; preds = %45
  %50 = load i32, i32* %9, align 4
  %51 = getelementptr inbounds [100 x [100 x i8]], [100 x [100 x i8]]* %6, i64 0, i64 0
  %52 = load i32, i32* %8, align 4
  %53 = sext i32 %52 to i64
  %54 = getelementptr inbounds [100 x i8], [100 x i8]* %51, i64 0, i64 %53
  %55 = load i8, i8* %54, align 1
  %56 = sext i8 %55 to i32
  %57 = add nsw i32 %50, %56
  store i32 %57, i32* %9, align 4
  br label %58

58:                                               ; preds = %49
  %59 = load i32, i32* %8, align 4
  %60 = add nsw i32 %59, 1
  store i32 %60, i32* %8, align 4
  br label %45

61:                                               ; preds = %45
  br label %90

62:                                               ; preds = %41
  store i32 0, i32* %8, align 4
  br label %63

63:                                               ; preds = %86, %62
  %64 = load i32, i32* %8, align 4
  %65 = load i32, i32* %3, align 4
  %66 = icmp slt i32 %64, %65
  br i1 %66, label %67, label %89

67:                                               ; preds = %63
  %68 = load i32, i32* %9, align 4
  %69 = getelementptr inbounds [100 x [100 x i8]], [100 x [100 x i8]]* %6, i64 0, i64 0
  %70 = load i32, i32* %8, align 4
  %71 = sext i32 %70 to i64
  %72 = getelementptr inbounds [100 x i8], [100 x i8]* %69, i64 0, i64 %71
  %73 = load i8, i8* %72, align 1
  %74 = sext i8 %73 to i32
  %75 = add nsw i32 %68, %74
  %76 = load i32, i32* %2, align 4
  %77 = sub nsw i32 %76, 1
  %78 = sext i32 %77 to i64
  %79 = getelementptr inbounds [100 x [100 x i8]], [100 x [100 x i8]]* %6, i64 0, i64 %78
  %80 = load i32, i32* %8, align 4
  %81 = sext i32 %80 to i64
  %82 = getelementptr inbounds [100 x i8], [100 x i8]* %79, i64 0, i64 %81
  %83 = load i8, i8* %82, align 1
  %84 = sext i8 %83 to i32
  %85 = add nsw i32 %75, %84
  store i32 %85, i32* %9, align 4
  br label %86

86:                                               ; preds = %67
  %87 = load i32, i32* %8, align 4
  %88 = add nsw i32 %87, 1
  store i32 %88, i32* %8, align 4
  br label %63

89:                                               ; preds = %63
  br label %90

90:                                               ; preds = %89, %61
  %91 = load i32, i32* %3, align 4
  %92 = icmp eq i32 %91, 1
  br i1 %92, label %93, label %112

93:                                               ; preds = %90
  store i32 1, i32* %7, align 4
  br label %94

94:                                               ; preds = %108, %93
  %95 = load i32, i32* %7, align 4
  %96 = load i32, i32* %2, align 4
  %97 = sub nsw i32 %96, 1
  %98 = icmp slt i32 %95, %97
  br i1 %98, label %99, label %111

99:                                               ; preds = %94
  %100 = load i32, i32* %9, align 4
  %101 = load i32, i32* %7, align 4
  %102 = sext i32 %101 to i64
  %103 = getelementptr inbounds [100 x [100 x i8]], [100 x [100 x i8]]* %6, i64 0, i64 %102
  %104 = getelementptr inbounds [100 x i8], [100 x i8]* %103, i64 0, i64 0
  %105 = load i8, i8* %104, align 4
  %106 = sext i8 %105 to i32
  %107 = add nsw i32 %100, %106
  store i32 %107, i32* %9, align 4
  br label %108

108:                                              ; preds = %99
  %109 = load i32, i32* %7, align 4
  %110 = add nsw i32 %109, 1
  store i32 %110, i32* %7, align 4
  br label %94

111:                                              ; preds = %94
  br label %141

112:                                              ; preds = %90
  store i32 1, i32* %7, align 4
  br label %113

113:                                              ; preds = %137, %112
  %114 = load i32, i32* %7, align 4
  %115 = load i32, i32* %2, align 4
  %116 = sub nsw i32 %115, 1
  %117 = icmp slt i32 %114, %116
  br i1 %117, label %118, label %140

118:                                              ; preds = %113
  %119 = load i32, i32* %9, align 4
  %120 = load i32, i32* %7, align 4
  %121 = sext i32 %120 to i64
  %122 = getelementptr inbounds [100 x [100 x i8]], [100 x [100 x i8]]* %6, i64 0, i64 %121
  %123 = getelementptr inbounds [100 x i8], [100 x i8]* %122, i64 0, i64 0
  %124 = load i8, i8* %123, align 4
  %125 = sext i8 %124 to i32
  %126 = add nsw i32 %119, %125
  %127 = load i32, i32* %7, align 4
  %128 = sext i32 %127 to i64
  %129 = getelementptr inbounds [100 x [100 x i8]], [100 x [100 x i8]]* %6, i64 0, i64 %128
  %130 = load i32, i32* %3, align 4
  %131 = sub nsw i32 %130, 1
  %132 = sext i32 %131 to i64
  %133 = getelementptr inbounds [100 x i8], [100 x i8]* %129, i64 0, i64 %132
  %134 = load i8, i8* %133, align 1
  %135 = sext i8 %134 to i32
  %136 = add nsw i32 %126, %135
  store i32 %136, i32* %9, align 4
  br label %137

137:                                              ; preds = %118
  %138 = load i32, i32* %7, align 4
  %139 = add nsw i32 %138, 1
  store i32 %139, i32* %7, align 4
  br label %113

140:                                              ; preds = %113
  br label %141

141:                                              ; preds = %140, %111
  %142 = load i32, i32* %9, align 4
  %143 = call i32 (i8*, ...) @printf(i8* getelementptr inbounds ([4 x i8], [4 x i8]* @.str.2, i64 0, i64 0), i32 %142)
  br label %144

144:                                              ; preds = %141
  %145 = load i32, i32* %5, align 4
  %146 = add nsw i32 %145, 1
  store i32 %146, i32* %5, align 4
  br label %11

147:                                              ; preds = %11
  %148 = load i32, i32* %1, align 4
  ret i32 %148
}