; Function Attrs: nofree nounwind sspstrong uwtable
define dso_local i32 @main() local_unnamed_addr #0 {
  %1 = alloca i32, align 4
  %2 = alloca i32, align 4
  %3 = alloca i32, align 4
  %4 = alloca [100 x [100 x i8]], align 16
  %5 = bitcast i32* %1 to i8*
  call void @llvm.lifetime.start.p0i8(i64 4, i8* nonnull %5) #4
  %6 = bitcast i32* %2 to i8*
  call void @llvm.lifetime.start.p0i8(i64 4, i8* nonnull %6) #4
  %7 = bitcast i32* %3 to i8*
  call void @llvm.lifetime.start.p0i8(i64 4, i8* nonnull %7) #4
  %8 = call i32 (i8*, ...) @__isoc99_scanf(i8* getelementptr inbounds ([3 x i8], [3 x i8]* @.str, i64 0, i64 0), i32* nonnull %3)
  %9 = getelementptr inbounds [100 x [100 x i8]], [100 x [100 x i8]]* %4, i64 0, i64 0, i64 0
  %10 = load i32, i32* %3, align 4, !tbaa !5
  %11 = icmp sgt i32 %10, 0
  br i1 %11, label %12, label %298

12:                                               ; preds = %0, %292
  %13 = phi i32 [ %295, %292 ], [ 0, %0 ]
  %14 = call i32 (i8*, ...) @__isoc99_scanf(i8* getelementptr inbounds ([6 x i8], [6 x i8]* @.str.1, i64 0, i64 0), i32* nonnull %1, i32* nonnull %2)
  call void @llvm.lifetime.start.p0i8(i64 10000, i8* nonnull %9) #4
  %15 = load i32, i32* %1, align 4, !tbaa !5
  %16 = icmp sgt i32 %15, 0
  br i1 %16, label %17, label %44

17:                                               ; preds = %12
  %18 = load i32, i32* %2, align 4, !tbaa !5
  %19 = icmp sgt i32 %18, 0
  br i1 %19, label %20, label %41

20:                                               ; preds = %17, %35
  %21 = phi i32 [ %36, %35 ], [ %15, %17 ]
  %22 = phi i32 [ %37, %35 ], [ %18, %17 ]
  %23 = phi i64 [ %38, %35 ], [ 0, %17 ]
  %24 = icmp sgt i32 %22, 0
  br i1 %24, label %25, label %35

25:                                               ; preds = %20, %25
  %26 = phi i64 [ %29, %25 ], [ 0, %20 ]
  %27 = getelementptr inbounds [100 x [100 x i8]], [100 x [100 x i8]]* %4, i64 0, i64 %23, i64 %26
  %28 = call i32 (i8*, ...) @__isoc99_scanf(i8* getelementptr inbounds ([3 x i8], [3 x i8]* @.str, i64 0, i64 0), i8* nonnull %27)
  %29 = add nuw nsw i64 %26, 1
  %30 = load i32, i32* %2, align 4, !tbaa !5
  %31 = sext i32 %30 to i64
  %32 = icmp slt i64 %29, %31
  br i1 %32, label %25, label %33, !llvm.loop !9

33:                                               ; preds = %25
  %34 = load i32, i32* %1, align 4, !tbaa !5
  br label %35

35:                                               ; preds = %33, %20
  %36 = phi i32 [ %34, %33 ], [ %21, %20 ]
  %37 = phi i32 [ %30, %33 ], [ %22, %20 ]
  %38 = add nuw nsw i64 %23, 1
  %39 = sext i32 %36 to i64
  %40 = icmp slt i64 %38, %39
  br i1 %40, label %20, label %41, !llvm.loop !11

41:                                               ; preds = %35, %17
  %42 = phi i32 [ %15, %17 ], [ %36, %35 ]
  %43 = icmp eq i32 %42, 1
  br i1 %43, label %88, label %44

44:                                               ; preds = %12, %41
  %45 = phi i32 [ %42, %41 ], [ %15, %12 ]
  %46 = load i32, i32* %2, align 4, !tbaa !5
  %47 = add nsw i32 %45, -1
  %48 = sext i32 %47 to i64
  %49 = icmp sgt i32 %46, 0
  br i1 %49, label %50, label %186

50:                                               ; preds = %44
  %51 = zext i32 %46 to i64
  %52 = icmp ult i32 %46, 8
  br i1 %52, label %85, label %53

53:                                               ; preds = %50
  %54 = and i64 %51, 4294967288
  br label %55

55:                                               ; preds = %55, %53
  %56 = phi i64 [ 0, %53 ], [ %79, %55 ]
  %57 = phi <4 x i32> [ zeroinitializer, %53 ], [ %77, %55 ]
  %58 = phi <4 x i32> [ zeroinitializer, %53 ], [ %78, %55 ]
  %59 = getelementptr inbounds [100 x [100 x i8]], [100 x [100 x i8]]* %4, i64 0, i64 0, i64 %56
  %60 = bitcast i8* %59 to <4 x i8>*
  %61 = load <4 x i8>, <4 x i8>* %60, align 8, !tbaa !13
  %62 = getelementptr inbounds i8, i8* %59, i64 4
  %63 = bitcast i8* %62 to <4 x i8>*
  %64 = load <4 x i8>, <4 x i8>* %63, align 4, !tbaa !13
  %65 = sext <4 x i8> %61 to <4 x i32>
  %66 = sext <4 x i8> %64 to <4 x i32>
  %67 = add <4 x i32> %57, %65
  %68 = add <4 x i32> %58, %66
  %69 = getelementptr inbounds [100 x [100 x i8]], [100 x [100 x i8]]* %4, i64 0, i64 %48, i64 %56
  %70 = bitcast i8* %69 to <4 x i8>*
  %71 = load <4 x i8>, <4 x i8>* %70, align 4, !tbaa !13
  %72 = getelementptr inbounds i8, i8* %69, i64 4
  %73 = bitcast i8* %72 to <4 x i8>*
  %74 = load <4 x i8>, <4 x i8>* %73, align 4, !tbaa !13
  %75 = sext <4 x i8> %71 to <4 x i32>
  %76 = sext <4 x i8> %74 to <4 x i32>
  %77 = add <4 x i32> %67, %75
  %78 = add <4 x i32> %68, %76
  %79 = add nuw i64 %56, 8
  %80 = icmp eq i64 %79, %54
  br i1 %80, label %81, label %55, !llvm.loop !14

81:                                               ; preds = %55
  %82 = add <4 x i32> %78, %77
  %83 = call i32 @llvm.vector.reduce.add.v4i32(<4 x i32> %82)
  %84 = icmp eq i64 %54, %51
  br i1 %84, label %181, label %85

85:                                               ; preds = %50, %81
  %86 = phi i64 [ 0, %50 ], [ %54, %81 ]
  %87 = phi i32 [ 0, %50 ], [ %83, %81 ]
  br label %168

88:                                               ; preds = %41
  %89 = load i32, i32* %2, align 4, !tbaa !5
  %90 = icmp sgt i32 %89, 0
  br i1 %90, label %91, label %292

91:                                               ; preds = %88
  %92 = zext i32 %89 to i64
  %93 = icmp ult i32 %89, 8
  br i1 %93, label %156, label %94

94:                                               ; preds = %91
  %95 = and i64 %92, 4294967288
  %96 = add nsw i64 %95, -8
  %97 = lshr exact i64 %96, 3
  %98 = add nuw nsw i64 %97, 1
  %99 = and i64 %98, 1
  %100 = icmp eq i64 %96, 0
  br i1 %100, label %132, label %101

101:                                              ; preds = %94
  %102 = and i64 %98, 4611686018427387902
  br label %103

103:                                              ; preds = %103, %101
  %104 = phi i64 [ 0, %101 ], [ %129, %103 ]
  %105 = phi <4 x i32> [ zeroinitializer, %101 ], [ %127, %103 ]
  %106 = phi <4 x i32> [ zeroinitializer, %101 ], [ %128, %103 ]
  %107 = phi i64 [ %102, %101 ], [ %130, %103 ]
  %108 = getelementptr inbounds [100 x [100 x i8]], [100 x [100 x i8]]* %4, i64 0, i64 0, i64 %104
  %109 = bitcast i8* %108 to <4 x i8>*
  %110 = load <4 x i8>, <4 x i8>* %109, align 16, !tbaa !13
  %111 = getelementptr inbounds i8, i8* %108, i64 4
  %112 = bitcast i8* %111 to <4 x i8>*
  %113 = load <4 x i8>, <4 x i8>* %112, align 4, !tbaa !13
  %114 = sext <4 x i8> %110 to <4 x i32>
  %115 = sext <4 x i8> %113 to <4 x i32>
  %116 = add <4 x i32> %105, %114
  %117 = add <4 x i32> %106, %115
  %118 = or i64 %104, 8
  %119 = getelementptr inbounds [100 x [100 x i8]], [100 x [100 x i8]]* %4, i64 0, i64 0, i64 %118
  %120 = bitcast i8* %119 to <4 x i8>*
  %121 = load <4 x i8>, <4 x i8>* %120, align 8, !tbaa !13
  %122 = getelementptr inbounds i8, i8* %119, i64 4
  %123 = bitcast i8* %122 to <4 x i8>*
  %124 = load <4 x i8>, <4 x i8>* %123, align 4, !tbaa !13
  %125 = sext <4 x i8> %121 to <4 x i32>
  %126 = sext <4 x i8> %124 to <4 x i32>
  %127 = add <4 x i32> %116, %125
  %128 = add <4 x i32> %117, %126
  %129 = add nuw i64 %104, 16
  %130 = add i64 %107, -2
  %131 = icmp eq i64 %130, 0
  br i1 %131, label %132, label %103, !llvm.loop !16

132:                                              ; preds = %103, %94
  %133 = phi <4 x i32> [ undef, %94 ], [ %127, %103 ]
  %134 = phi <4 x i32> [ undef, %94 ], [ %128, %103 ]
  %135 = phi i64 [ 0, %94 ], [ %129, %103 ]
  %136 = phi <4 x i32> [ zeroinitializer, %94 ], [ %127, %103 ]
  %137 = phi <4 x i32> [ zeroinitializer, %94 ], [ %128, %103 ]
  %138 = icmp eq i64 %99, 0
  br i1 %138, label %150, label %139

139:                                              ; preds = %132
  %140 = getelementptr inbounds [100 x [100 x i8]], [100 x [100 x i8]]* %4, i64 0, i64 0, i64 %135
  %141 = getelementptr inbounds i8, i8* %140, i64 4
  %142 = bitcast i8* %141 to <4 x i8>*
  %143 = load <4 x i8>, <4 x i8>* %142, align 4, !tbaa !13
  %144 = sext <4 x i8> %143 to <4 x i32>
  %145 = add <4 x i32> %137, %144
  %146 = bitcast i8* %140 to <4 x i8>*
  %147 = load <4 x i8>, <4 x i8>* %146, align 8, !tbaa !13
  %148 = sext <4 x i8> %147 to <4 x i32>
  %149 = add <4 x i32> %136, %148
  br label %150

150:                                              ; preds = %132, %139
  %151 = phi <4 x i32> [ %133, %132 ], [ %149, %139 ]
  %152 = phi <4 x i32> [ %134, %132 ], [ %145, %139 ]
  %153 = add <4 x i32> %152, %151
  %154 = call i32 @llvm.vector.reduce.add.v4i32(<4 x i32> %153)
  %155 = icmp eq i64 %95, %92
  br i1 %155, label %181, label %156

156:                                              ; preds = %91, %150
  %157 = phi i64 [ 0, %91 ], [ %95, %150 ]
  %158 = phi i32 [ 0, %91 ], [ %154, %150 ]
  br label %159

159:                                              ; preds = %156, %159
  %160 = phi i64 [ %166, %159 ], [ %157, %156 ]
  %161 = phi i32 [ %165, %159 ], [ %158, %156 ]
  %162 = getelementptr inbounds [100 x [100 x i8]], [100 x [100 x i8]]* %4, i64 0, i64 0, i64 %160
  %163 = load i8, i8* %162, align 1, !tbaa !13
  %164 = sext i8 %163 to i32
  %165 = add nsw i32 %161, %164
  %166 = add nuw nsw i64 %160, 1
  %167 = icmp eq i64 %166, %92
  br i1 %167, label %181, label %159, !llvm.loop !17

168:                                              ; preds = %85, %168
  %169 = phi i64 [ %179, %168 ], [ %86, %85 ]
  %170 = phi i32 [ %178, %168 ], [ %87, %85 ]
  %171 = getelementptr inbounds [100 x [100 x i8]], [100 x [100 x i8]]* %4, i64 0, i64 0, i64 %169
  %172 = load i8, i8* %171, align 1, !tbaa !13
  %173 = sext i8 %172 to i32
  %174 = add nsw i32 %170, %173
  %175 = getelementptr inbounds [100 x [100 x i8]], [100 x [100 x i8]]* %4, i64 0, i64 %48, i64 %169
  %176 = load i8, i8* %175, align 1, !tbaa !13
  %177 = sext i8 %176 to i32
  %178 = add nsw i32 %174, %177
  %179 = add nuw nsw i64 %169, 1
  %180 = icmp eq i64 %179, %51
  br i1 %180, label %181, label %168, !llvm.loop !19

181:                                              ; preds = %168, %159, %81, %150
  %182 = phi i32 [ %42, %150 ], [ %45, %81 ], [ %42, %159 ], [ %45, %168 ]
  %183 = phi i32 [ %89, %150 ], [ %46, %81 ], [ %89, %159 ], [ %46, %168 ]
  %184 = phi i32 [ %154, %150 ], [ %83, %81 ], [ %165, %159 ], [ %178, %168 ]
  %185 = icmp eq i32 %183, 1
  br i1 %185, label %201, label %186

186:                                              ; preds = %44, %181
  %187 = phi i32 [ %184, %181 ], [ 0, %44 ]
  %188 = phi i32 [ %183, %181 ], [ %46, %44 ]
  %189 = phi i32 [ %182, %181 ], [ %45, %44 ]
  %190 = add nsw i32 %188, -1
  %191 = sext i32 %190 to i64
  %192 = icmp sgt i32 %189, 2
  br i1 %192, label %193, label %292

193:                                              ; preds = %186
  %194 = add nsw i32 %189, -1
  %195 = zext i32 %194 to i64
  %196 = add nsw i64 %195, -1
  %197 = and i64 %196, 1
  %198 = icmp eq i32 %194, 2
  br i1 %198, label %278, label %199

199:                                              ; preds = %193
  %200 = and i64 %196, -2
  br label %238

201:                                              ; preds = %181
  %202 = icmp sgt i32 %182, 2
  br i1 %202, label %203, label %292

203:                                              ; preds = %201
  %204 = add nsw i32 %182, -1
  %205 = zext i32 %204 to i64
  %206 = add nsw i64 %205, -1
  %207 = add nsw i64 %205, -2
  %208 = and i64 %206, 3
  %209 = icmp ult i64 %207, 3
  br i1 %209, label %262, label %210

210:                                              ; preds = %203
  %211 = and i64 %206, -4
  br label %212

212:                                              ; preds = %212, %210
  %213 = phi i64 [ 1, %210 ], [ %235, %212 ]
  %214 = phi i32 [ %184, %210 ], [ %234, %212 ]
  %215 = phi i64 [ %211, %210 ], [ %236, %212 ]
  %216 = getelementptr inbounds [100 x [100 x i8]], [100 x [100 x i8]]* %4, i64 0, i64 %213, i64 0
  %217 = load i8, i8* %216, align 4, !tbaa !13
  %218 = sext i8 %217 to i32
  %219 = add nsw i32 %214, %218
  %220 = add nuw nsw i64 %213, 1
  %221 = getelementptr inbounds [100 x [100 x i8]], [100 x [100 x i8]]* %4, i64 0, i64 %220, i64 0
  %222 = load i8, i8* %221, align 4, !tbaa !13
  %223 = sext i8 %222 to i32
  %224 = add nsw i32 %219, %223
  %225 = add nuw nsw i64 %213, 2
  %226 = getelementptr inbounds [100 x [100 x i8]], [100 x [100 x i8]]* %4, i64 0, i64 %225, i64 0
  %227 = load i8, i8* %226, align 4, !tbaa !13
  %228 = sext i8 %227 to i32
  %229 = add nsw i32 %224, %228
  %230 = add nuw nsw i64 %213, 3
  %231 = getelementptr inbounds [100 x [100 x i8]], [100 x [100 x i8]]* %4, i64 0, i64 %230, i64 0
  %232 = load i8, i8* %231, align 4, !tbaa !13
  %233 = sext i8 %232 to i32
  %234 = add nsw i32 %229, %233
  %235 = add nuw nsw i64 %213, 4
  %236 = add i64 %215, -4
  %237 = icmp eq i64 %236, 0
  br i1 %237, label %262, label %212, !llvm.loop !20

238:                                              ; preds = %238, %199
  %239 = phi i64 [ 1, %199 ], [ %259, %238 ]
  %240 = phi i32 [ %187, %199 ], [ %258, %238 ]
  %241 = phi i64 [ %200, %199 ], [ %260, %238 ]
  %242 = getelementptr inbounds [100 x [100 x i8]], [100 x [100 x i8]]* %4, i64 0, i64 %239, i64 0
  %243 = load i8, i8* %242, align 4, !tbaa !13
  %244 = sext i8 %243 to i32
  %245 = add nsw i32 %240, %244
  %246 = getelementptr inbounds [100 x [100 x i8]], [100 x [100 x i8]]* %4, i64 0, i64 %239, i64 %191
  %247 = load i8, i8* %246, align 1, !tbaa !13
  %248 = sext i8 %247 to i32
  %249 = add nsw i32 %245, %248
  %250 = add nuw nsw i64 %239, 1
  %251 = getelementptr inbounds [100 x [100 x i8]], [100 x [100 x i8]]* %4, i64 0, i64 %250, i64 0
  %252 = load i8, i8* %251, align 4, !tbaa !13
  %253 = sext i8 %252 to i32
  %254 = add nsw i32 %249, %253
  %255 = getelementptr inbounds [100 x [100 x i8]], [100 x [100 x i8]]* %4, i64 0, i64 %250, i64 %191
  %256 = load i8, i8* %255, align 1, !tbaa !13
  %257 = sext i8 %256 to i32
  %258 = add nsw i32 %254, %257
  %259 = add nuw nsw i64 %239, 2
  %260 = add i64 %241, -2
  %261 = icmp eq i64 %260, 0
  br i1 %261, label %278, label %238, !llvm.loop !21

262:                                              ; preds = %212, %203
  %263 = phi i32 [ undef, %203 ], [ %234, %212 ]
  %264 = phi i64 [ 1, %203 ], [ %235, %212 ]
  %265 = phi i32 [ %184, %203 ], [ %234, %212 ]
  %266 = icmp eq i64 %208, 0
  br i1 %266, label %292, label %267

267:                                              ; preds = %262, %267
  %268 = phi i64 [ %275, %267 ], [ %264, %262 ]
  %269 = phi i32 [ %274, %267 ], [ %265, %262 ]
  %270 = phi i64 [ %276, %267 ], [ %208, %262 ]
  %271 = getelementptr inbounds [100 x [100 x i8]], [100 x [100 x i8]]* %4, i64 0, i64 %268, i64 0
  %272 = load i8, i8* %271, align 4, !tbaa !13
  %273 = sext i8 %272 to i32
  %274 = add nsw i32 %269, %273
  %275 = add nuw nsw i64 %268, 1
  %276 = add i64 %270, -1
  %277 = icmp eq i64 %276, 0
  br i1 %277, label %292, label %267, !llvm.loop !22

278:                                              ; preds = %238, %193
  %279 = phi i32 [ undef, %193 ], [ %258, %238 ]
  %280 = phi i64 [ 1, %193 ], [ %259, %238 ]
  %281 = phi i32 [ %187, %193 ], [ %258, %238 ]
  %282 = icmp eq i64 %197, 0
  br i1 %282, label %292, label %283

283:                                              ; preds = %278
  %284 = getelementptr inbounds [100 x [100 x i8]], [100 x [100 x i8]]* %4, i64 0, i64 %280, i64 0
  %285 = load i8, i8* %284, align 4, !tbaa !13
  %286 = sext i8 %285 to i32
  %287 = add nsw i32 %281, %286
  %288 = getelementptr inbounds [100 x [100 x i8]], [100 x [100 x i8]]* %4, i64 0, i64 %280, i64 %191
  %289 = load i8, i8* %288, align 1, !tbaa !13
  %290 = sext i8 %289 to i32
  %291 = add nsw i32 %287, %290
  br label %292

292:                                              ; preds = %283, %278, %262, %267, %88, %186, %201
  %293 = phi i32 [ %184, %201 ], [ %187, %186 ], [ 0, %88 ], [ %263, %262 ], [ %274, %267 ], [ %279, %278 ], [ %291, %283 ]
  %294 = call i32 (i8*, ...) @printf(i8* nonnull dereferenceable(1) getelementptr inbounds ([4 x i8], [4 x i8]* @.str.2, i64 0, i64 0), i32 %293)
  call void @llvm.lifetime.end.p0i8(i64 10000, i8* nonnull %9) #4
  %295 = add nuw nsw i32 %13, 1
  %296 = load i32, i32* %3, align 4, !tbaa !5
  %297 = icmp slt i32 %295, %296
  br i1 %297, label %12, label %298, !llvm.loop !24

298:                                              ; preds = %292, %0
  call void @llvm.lifetime.end.p0i8(i64 4, i8* nonnull %7) #4
  call void @llvm.lifetime.end.p0i8(i64 4, i8* nonnull %6) #4
  call void @llvm.lifetime.end.p0i8(i64 4, i8* nonnull %5) #4
  ret i32 0
}